; Function Attrs: mustprogress nounwind uwtable
define dso_local void @_ZN4node16EnabledDebugList5ParseESt10shared_ptrINS_7KVStoreEEPN2v87IsolateE(ptr noundef nonnull align 1 dereferenceable(75) %this, ptr nocapture noundef readonly %env_vars, ptr noundef %isolate) local_unnamed_addr #3 align 2 {
entry:
  %cats = alloca %"class.std::__cxx11::basic_string", align 8
  %agg.tmp = alloca %"class.std::shared_ptr", align 8
  call void @_ZNSt7__cxx1112basic_stringIcSt11char_traitsIcESaIcEEC1Ev(ptr noundef nonnull align 8 dereferenceable(32) %cats) #17
  %0 = load ptr, ptr %env_vars, align 8
  store ptr %0, ptr %agg.tmp, align 8
  %_M_refcount.i.i = getelementptr inbounds i8, ptr %agg.tmp, i64 8
  %_M_refcount3.i.i = getelementptr inbounds i8, ptr %env_vars, i64 8
  %1 = load ptr, ptr %_M_refcount3.i.i, align 8
  store ptr %1, ptr %_M_refcount.i.i, align 8
  %cmp.not.i.i.i = icmp eq ptr %1, null
  br i1 %cmp.not.i.i.i, label %_ZNSt10shared_ptrIN4node7KVStoreEEC2ERKS2_.exit, label %if.then.i.i.i

if.then.i.i.i:                                    ; preds = %entry
  %_M_use_count.i.i.i.i = getelementptr inbounds i8, ptr %1, i64 8
  %2 = load i8, ptr @__libc_single_threaded, align 1
  %tobool.i.not.i.i.i.i = icmp eq i8 %2, 0
  br i1 %tobool.i.not.i.i.i.i, label %if.else.i.i.i.i.i, label %if.then.i.i.i.i.i

if.then.i.i.i.i.i:                                ; preds = %if.then.i.i.i
  %3 = load i32, ptr %_M_use_count.i.i.i.i, align 4
  %add.i.i.i.i.i = add nsw i32 %3, 1
  store i32 %add.i.i.i.i.i, ptr %_M_use_count.i.i.i.i, align 4
  br label %_ZNSt10shared_ptrIN4node7KVStoreEEC2ERKS2_.exit

if.else.i.i.i.i.i:                                ; preds = %if.then.i.i.i
  %4 = atomicrmw volatile add ptr %_M_use_count.i.i.i.i, i32 1 acq_rel, align 4
  br label %_ZNSt10shared_ptrIN4node7KVStoreEEC2ERKS2_.exit

_ZNSt10shared_ptrIN4node7KVStoreEEC2ERKS2_.exit:  ; preds = %entry, %if.then.i.i.i.i.i, %if.else.i.i.i.i.i
  %call = call noundef zeroext i1 @_ZN4node11credentials10SafeGetenvEPKcPNSt7__cxx1112basic_stringIcSt11char_traitsIcESaIcEEESt10shared_ptrINS_7KVStoreEEPN2v87IsolateE(ptr noundef nonnull @.str, ptr noundef nonnull %cats, ptr noundef nonnull %agg.tmp, ptr noundef %isolate) #17
  %5 = load ptr, ptr %_M_refcount.i.i, align 8
  %cmp.not.i.i.i2 = icmp eq ptr %5, null
  br i1 %cmp.not.i.i.i2, label %_ZNSt10shared_ptrIN4node7KVStoreEED2Ev.exit, label %if.then.i.i.i3

if.then.i.i.i3:                                   ; preds = %_ZNSt10shared_ptrIN4node7KVStoreEEC2ERKS2_.exit
  %_M_use_count.i.i.i.i4 = getelementptr inbounds i8, ptr %5, i64 8
  %6 = load atomic i64, ptr %_M_use_count.i.i.i.i4 acquire, align 8
  %cmp.i.i.i.i = icmp eq i64 %6, 4294967297
  %7 = trunc i64 %6 to i32
  br i1 %cmp.i.i.i.i, label %if.then.i.i.i.i, label %if.end.i.i.i.i

if.then.i.i.i.i:                                  ; preds = %if.then.i.i.i3
  store i32 0, ptr %_M_use_count.i.i.i.i4, align 8
  %_M_weak_count.i.i.i.i = getelementptr inbounds i8, ptr %5, i64 12
  store i32 0, ptr %_M_weak_count.i.i.i.i, align 4
  %vtable.i.i.i.i = load ptr, ptr %5, align 8
  %vfn.i.i.i.i = getelementptr inbounds i8, ptr %vtable.i.i.i.i, i64 16
  %8 = load ptr, ptr %vfn.i.i.i.i, align 8
  call void %8(ptr noundef nonnull align 8 dereferenceable(16) %5) #17
  br label %if.end8.sink.split.i.i.i.i

if.end.i.i.i.i:                                   ; preds = %if.then.i.i.i3
  %9 = load i8, ptr @__libc_single_threaded, align 1
  %tobool.i.i.not.i.i.i.i = icmp eq i8 %9, 0
  br i1 %tobool.i.i.not.i.i.i.i, label %if.else.i.i.i.i.i7, label %if.then.i.i.i.i.i5

if.then.i.i.i.i.i5:                               ; preds = %if.end.i.i.i.i
  %add.i.i.i.i.i6 = add nsw i32 %7, -1
  store i32 %add.i.i.i.i.i6, ptr %_M_use_count.i.i.i.i4, align 4
  br label %_ZN9__gnu_cxx27__exchange_and_add_dispatchEPii.exit.i.i.i.i

if.else.i.i.i.i.i7:                               ; preds = %if.end.i.i.i.i
  %10 = atomicrmw volatile add ptr %_M_use_count.i.i.i.i4, i32 -1 acq_rel, align 4
  br label %_ZN9__gnu_cxx27__exchange_and_add_dispatchEPii.exit.i.i.i.i

_ZN9__gnu_cxx27__exchange_and_add_dispatchEPii.exit.i.i.i.i: ; preds = %if.else.i.i.i.i.i7, %if.then.i.i.i.i.i5
  %retval.i.0.i.i.i.i = phi i32 [ %7, %if.then.i.i.i.i.i5 ], [ %10, %if.else.i.i.i.i.i7 ]
  %cmp6.i.i.i.i = icmp eq i32 %retval.i.0.i.i.i.i, 1
  br i1 %cmp6.i.i.i.i, label %if.then7.i.i.i.i, label %_ZNSt10shared_ptrIN4node7KVStoreEED2Ev.exit

if.then7.i.i.i.i:                                 ; preds = %_ZN9__gnu_cxx27__exchange_and_add_dispatchEPii.exit.i.i.i.i
  %vtable.i.i.i.i.i.i = load ptr, ptr %5, align 8
  %vfn.i.i.i.i.i.i = getelementptr inbounds i8, ptr %vtable.i.i.i.i.i.i, i64 16
  %11 = load ptr, ptr %vfn.i.i.i.i.i.i, align 8
  call void %11(ptr noundef nonnull align 8 dereferenceable(16) %5) #17
  %_M_weak_count.i.i.i.i.i.i = getelementptr inbounds i8, ptr %5, i64 12
  %12 = load i8, ptr @__libc_single_threaded, align 1
  %tobool.i.i.not.i.i.i.i.i.i = icmp eq i8 %12, 0
  br i1 %tobool.i.i.not.i.i.i.i.i.i, label %if.else.i.i.i.i.i.i.i, label %if.then.i.i.i.i.i.i.i

if.then.i.i.i.i.i.i.i:                            ; preds = %if.then7.i.i.i.i
  %13 = load i32, ptr %_M_weak_count.i.i.i.i.i.i, align 4
  %add.i.i.i.i.i.i.i = add nsw i32 %13, -1
  store i32 %add.i.i.i.i.i.i.i, ptr %_M_weak_count.i.i.i.i.i.i, align 4
  br label %_ZN9__gnu_cxx27__exchange_and_add_dispatchEPii.exit.i.i.i.i.i.i

if.else.i.i.i.i.i.i.i:                            ; preds = %if.then7.i.i.i.i
  %14 = atomicrmw volatile add ptr %_M_weak_count.i.i.i.i.i.i, i32 -1 acq_rel, align 4
  br label %_ZN9__gnu_cxx27__exchange_and_add_dispatchEPii.exit.i.i.i.i.i.i

_ZN9__gnu_cxx27__exchange_and_add_dispatchEPii.exit.i.i.i.i.i.i: ; preds = %if.else.i.i.i.i.i.i.i, %if.then.i.i.i.i.i.i.i
  %retval.i.0.i.i.i.i.i.i = phi i32 [ %13, %if.then.i.i.i.i.i.i.i ], [ %14, %if.else.i.i.i.i.i.i.i ]
  %cmp.i.i.i.i.i.i = icmp eq i32 %retval.i.0.i.i.i.i.i.i, 1
  br i1 %cmp.i.i.i.i.i.i, label %if.end8.sink.split.i.i.i.i, label %_ZNSt10shared_ptrIN4node7KVStoreEED2Ev.exit

if.end8.sink.split.i.i.i.i:                       ; preds = %_ZN9__gnu_cxx27__exchange_and_add_dispatchEPii.exit.i.i.i.i.i.i, %if.then.i.i.i.i
  %vtable2.i.i.i.i.i.i = load ptr, ptr %5, align 8
  %vfn3.i.i.i.i.i.i = getelementptr inbounds i8, ptr %vtable2.i.i.i.i.i.i, i64 24
  %15 = load ptr, ptr %vfn3.i.i.i.i.i.i, align 8
  call void %15(ptr noundef nonnull align 8 dereferenceable(16) %5) #17
  br label %_ZNSt10shared_ptrIN4node7KVStoreEED2Ev.exit

_ZNSt10shared_ptrIN4node7KVStoreEED2Ev.exit:      ; preds = %_ZNSt10shared_ptrIN4node7KVStoreEEC2ERKS2_.exit, %_ZN9__gnu_cxx27__exchange_and_add_dispatchEPii.exit.i.i.i.i, %_ZN9__gnu_cxx27__exchange_and_add_dispatchEPii.exit.i.i.i.i.i.i, %if.end8.sink.split.i.i.i.i
  call void @_ZN4node16EnabledDebugList5ParseERKNSt7__cxx1112basic_stringIcSt11char_traitsIcESaIcEEE(ptr noundef nonnull align 1 dereferenceable(75) %this, ptr noundef nonnull align 8 dereferenceable(32) %cats)
  call void @_ZNSt7__cxx1112basic_stringIcSt11char_traitsIcESaIcEED1Ev(ptr noundef nonnull align 8 dereferenceable(32) %cats) #17
  ret void
}